target datalayout = "e-m:e-p270:32:32-p271:32:32-p272:64:64-i64:64-i128:128-f80:128-n8:16:32:64-S128"
target triple = "x86_64-unknown-linux-gnu"

%"class.hermes::(anonymous namespace)::ESTreeJSONDumper" = type { ptr, ptr, i32, i32, i32, [4 x i8], %"class.llvh::StringMap", ptr }
%"class.llvh::StringMap" = type <{ %"class.llvh::StringMapImpl", %"class.llvh::MallocAllocator", [7 x i8] }>
%"class.llvh::StringMapImpl" = type { ptr, i32, i32, i32, i32 }
%"class.llvh::MallocAllocator" = type { i8 }
%"class.llvh::StringRef" = type { ptr, i64 }

@.str.246 = private unnamed_addr constant [5 x i8] c"type\00", align 1

; Function Attrs: mustprogress nounwind uwtable
define linkonce_odr hidden void @_ZN6hermes11JSONEmitter12emitKeyValueIN4llvh9StringRefEEEvS3_RKT_(ptr noundef nonnull align 8 dereferenceable(72) %this, ptr %key.coerce0, i64 %key.coerce1, ptr noundef nonnull align 8 dereferenceable(16) %val) #0 comdat align 2 {
entry:
  %key = alloca %"class.llvh::StringRef", align 8
  %this.addr = alloca ptr, align 8
  %val.addr = alloca ptr, align 8
  %agg.tmp = alloca %"class.llvh::StringRef", align 8
  %agg.tmp2 = alloca %"class.llvh::StringRef", align 8
  %0 = getelementptr inbounds { ptr, i64 }, ptr %key, i32 0, i32 0
  store ptr %key.coerce0, ptr %0, align 8
  %1 = getelementptr inbounds { ptr, i64 }, ptr %key, i32 0, i32 1
  store i64 %key.coerce1, ptr %1, align 8
  store ptr %this, ptr %this.addr, align 8
  store ptr %val, ptr %val.addr, align 8
  %this1 = load ptr, ptr %this.addr, align 8
  call void @llvm.memcpy.p0.p0.i64(ptr align 8 %agg.tmp, ptr align 8 %key, i64 16, i1 false)
  %2 = getelementptr inbounds { ptr, i64 }, ptr %agg.tmp, i32 0, i32 0
  %3 = load ptr, ptr %2, align 8
  %4 = getelementptr inbounds { ptr, i64 }, ptr %agg.tmp, i32 0, i32 1
  %5 = load i64, ptr %4, align 8
  call void @_ZN6hermes11JSONEmitter7emitKeyEN4llvh9StringRefE(ptr noundef nonnull align 8 dereferenceable(72) %this1, ptr %3, i64 %5)
  %6 = load ptr, ptr %val.addr, align 8
  call void @llvm.memcpy.p0.p0.i64(ptr align 8 %agg.tmp2, ptr align 8 %6, i64 16, i1 false)
  %7 = getelementptr inbounds { ptr, i64 }, ptr %agg.tmp2, i32 0, i32 0
  %8 = load ptr, ptr %7, align 8
  %9 = getelementptr inbounds { ptr, i64 }, ptr %agg.tmp2, i32 0, i32 1
  %10 = load i64, ptr %9, align 8
  call void @_ZN6hermes11JSONEmitter9emitValueEN4llvh9StringRefE(ptr noundef nonnull align 8 dereferenceable(72) %this1, ptr %8, i64 %10)
  ret void
}

; Function Attrs: mustprogress nounwind uwtable
define internal void @_ZN6hermes12_GLOBAL__N_116ESTreeJSONDumper5visitEPNS_6ESTree4NodeEN4llvh9StringRefE(ptr noundef nonnull align 8 dereferenceable(72) %this, ptr noundef %node, ptr %type.coerce0, i64 %type.coerce1) #0 align 2 {
entry:
  %this.addr.i = alloca ptr, align 8
  %Str.addr.i = alloca ptr, align 8
  %type = alloca %"class.llvh::StringRef", align 8
  %this.addr = alloca ptr, align 8
  %node.addr = alloca ptr, align 8
  %agg.tmp = alloca %"class.llvh::StringRef", align 8
  %0 = getelementptr inbounds { ptr, i64 }, ptr %type, i32 0, i32 0
  store ptr %type.coerce0, ptr %0, align 8
  %1 = getelementptr inbounds { ptr, i64 }, ptr %type, i32 0, i32 1
  store i64 %type.coerce1, ptr %1, align 8
  store ptr %this, ptr %this.addr, align 8
  store ptr %node, ptr %node.addr, align 8
  %this1 = load ptr, ptr %this.addr, align 8
  %json_ = getelementptr inbounds %"class.hermes::(anonymous namespace)::ESTreeJSONDumper", ptr %this1, i32 0, i32 0
  %2 = load ptr, ptr %json_, align 8
  call void @_ZN6hermes11JSONEmitter8openDictEv(ptr noundef nonnull align 8 dereferenceable(72) %2)
  %json_2 = getelementptr inbounds %"class.hermes::(anonymous namespace)::ESTreeJSONDumper", ptr %this1, i32 0, i32 0
  %3 = load ptr, ptr %json_2, align 8
  store ptr %agg.tmp, ptr %this.addr.i, align 8
  store ptr @.str.246, ptr %Str.addr.i, align 8
  %this1.i = load ptr, ptr %this.addr.i, align 8
  %4 = load ptr, ptr %Str.addr.i, align 8
  store ptr %4, ptr %this1.i, align 8
  %Length.i = getelementptr inbounds %"class.llvh::StringRef", ptr %this1.i, i32 0, i32 1
  %5 = load ptr, ptr %Str.addr.i, align 8
  %tobool.i = icmp ne ptr %5, null
  br i1 %tobool.i, label %cond.true.i, label %cond.false.i

cond.true.i:                                      ; preds = %entry
  %6 = load ptr, ptr %Str.addr.i, align 8
  %call.i = call i64 @strlen(ptr noundef %6) #8
  br label %_ZN4llvh9StringRefC2EPKc.exit

cond.false.i:                                     ; preds = %entry
  br label %_ZN4llvh9StringRefC2EPKc.exit

_ZN4llvh9StringRefC2EPKc.exit:                    ; preds = %cond.false.i, %cond.true.i
  %cond.i = phi i64 [ %call.i, %cond.true.i ], [ 0, %cond.false.i ]
  store i64 %cond.i, ptr %Length.i, align 8
  %7 = getelementptr inbounds { ptr, i64 }, ptr %agg.tmp, i32 0, i32 0
  %8 = load ptr, ptr %7, align 8
  %9 = getelementptr inbounds { ptr, i64 }, ptr %agg.tmp, i32 0, i32 1
  %10 = load i64, ptr %9, align 8
  call void @_ZN6hermes11JSONEmitter12emitKeyValueIN4llvh9StringRefEEEvS3_RKT_(ptr noundef nonnull align 8 dereferenceable(72) %3, ptr %8, i64 %10, ptr noundef nonnull align 8 dereferenceable(16) %type)
  %11 = load ptr, ptr %node.addr, align 8
  call void @_ZN6hermes12_GLOBAL__N_116ESTreeJSONDumper12dumpChildrenEPNS_6ESTree4NodeE(ptr noundef nonnull align 8 dereferenceable(72) %this1, ptr noundef %11)
  %12 = load ptr, ptr %node.addr, align 8
  call void @_ZN6hermes12_GLOBAL__N_116ESTreeJSONDumper19printSourceLocationEPNS_6ESTree4NodeE(ptr noundef nonnull align 8 dereferenceable(72) %this1, ptr noundef %12)
  %json_3 = getelementptr inbounds %"class.hermes::(anonymous namespace)::ESTreeJSONDumper", ptr %this1, i32 0, i32 0
  %13 = load ptr, ptr %json_3, align 8
  call void @_ZN6hermes11JSONEmitter9closeDictEv(ptr noundef nonnull align 8 dereferenceable(72) %13)
  ret void
}