; Function Attrs: mustprogress nounwind uwtable
define internal fastcc void @_ZN6hermes12_GLOBAL__N_116ESTreeJSONDumper5visitEPNS_6ESTree4NodeEN4llvh9StringRefE(ptr noundef nonnull align 8 dereferenceable(72) %this, ptr noundef %node, ptr %type.coerce0, i64 %type.coerce1) unnamed_addr #0 align 2 {
entry:
  %0 = load ptr, ptr %this, align 8
  tail call void @_ZN6hermes11JSONEmitter8openDictEv(ptr noundef nonnull align 8 dereferenceable(72) %0) #7
  %1 = load ptr, ptr %this, align 8
  tail call void @_ZN6hermes11JSONEmitter7emitKeyEN4llvh9StringRefE(ptr noundef nonnull align 8 dereferenceable(72) %1, ptr nonnull @.str.246, i64 4) #7
  tail call void @_ZN6hermes11JSONEmitter9emitValueEN4llvh9StringRefE(ptr noundef nonnull align 8 dereferenceable(72) %1, ptr %type.coerce0, i64 %type.coerce1) #7
  tail call fastcc void @_ZN6hermes12_GLOBAL__N_116ESTreeJSONDumper12dumpChildrenEPNS_6ESTree4NodeE(ptr noundef nonnull align 8 dereferenceable(72) %this, ptr noundef %node)
  tail call fastcc void @_ZN6hermes12_GLOBAL__N_116ESTreeJSONDumper19printSourceLocationEPNS_6ESTree4NodeE(ptr noundef nonnull align 8 dereferenceable(72) %this, ptr noundef %node)
  %2 = load ptr, ptr %this, align 8
  tail call void @_ZN6hermes11JSONEmitter9closeDictEv(ptr noundef nonnull align 8 dereferenceable(72) %2) #7
  ret void
}